target datalayout = "e-m:e-p270:32:32-p271:32:32-p272:64:64-i64:64-i128:128-f80:128-n8:16:32:64-S128"
target triple = "x86_64-pc-linux-gnu"

%"struct.i18n::phonenumbers::(anonymous namespace)::NumberTest" = type { %"class.std::__cxx11::basic_string", %"class.std::__cxx11::basic_string" }
%"class.std::__cxx11::basic_string" = type { %"struct.std::__cxx11::basic_string<char>::_Alloc_hider", i64, %union.anon }
%"struct.std::__cxx11::basic_string<char>::_Alloc_hider" = type { ptr }
%union.anon = type { i64, [8 x i8] }

@_ZN4i18n12phonenumbersL19kExactGroupingCasesE = internal global [25 x %"struct.i18n::phonenumbers::(anonymous namespace)::NumberTest"] zeroinitializer, align 16

; Function Attrs: mustprogress nounwind uwtable
define internal void @_ZN4i18n12phonenumbers12_GLOBAL__N_110NumberTestD2Ev(ptr noundef nonnull align 8 dereferenceable(64) %0) unnamed_addr #5 align 2 {
  %2 = alloca ptr, align 8
  store ptr %0, ptr %2, align 8
  %3 = load ptr, ptr %2, align 8
  %4 = getelementptr inbounds %"struct.i18n::phonenumbers::(anonymous namespace)::NumberTest", ptr %3, i32 0, i32 1
  call void @_ZNSt7__cxx1112basic_stringIcSt11char_traitsIcESaIcEED1Ev(ptr noundef nonnull align 8 dereferenceable(32) %4) #3
  %5 = getelementptr inbounds %"struct.i18n::phonenumbers::(anonymous namespace)::NumberTest", ptr %3, i32 0, i32 0
  call void @_ZNSt7__cxx1112basic_stringIcSt11char_traitsIcESaIcEED1Ev(ptr noundef nonnull align 8 dereferenceable(32) %5) #3
  ret void
}

; Function Attrs: uwtable
define internal void @__cxx_global_array_dtor.260(ptr noundef %0) #0 section ".text.startup" {
  %2 = alloca ptr, align 8
  store ptr %0, ptr %2, align 8
  br label %3

3:                                                ; preds = %3, %1
  %4 = phi ptr [ getelementptr inbounds (%"struct.i18n::phonenumbers::(anonymous namespace)::NumberTest", ptr @_ZN4i18n12phonenumbersL19kExactGroupingCasesE, i64 25), %1 ], [ %5, %3 ]
  %5 = getelementptr inbounds %"struct.i18n::phonenumbers::(anonymous namespace)::NumberTest", ptr %4, i64 -1
  call void @_ZN4i18n12phonenumbers12_GLOBAL__N_110NumberTestD2Ev(ptr noundef nonnull align 8 dereferenceable(64) %5) #3
  %6 = icmp eq ptr %5, @_ZN4i18n12phonenumbersL19kExactGroupingCasesE
  br i1 %6, label %7, label %3

7:                                                ; preds = %3
  ret void
}